target datalayout = "e-m:e-p270:32:32-p271:32:32-p272:64:64-i64:64-i128:128-f80:128-n8:16:32:64-S128"
target triple = "x86_64-unknown-linux-gnu"

%"class.std::basic_ostream" = type { ptr, %"class.std::basic_ios" }
%"class.std::basic_ios" = type { %"class.std::ios_base", ptr, i8, i8, ptr, ptr, ptr, ptr }
%"class.std::ios_base" = type { ptr, i64, i64, i32, i32, i32, ptr, %"struct.std::ios_base::_Words", [8 x %"struct.std::ios_base::_Words"], i32, ptr, %"class.std::locale" }
%"struct.std::ios_base::_Words" = type { ptr, i64 }
%"class.std::locale" = type { ptr }
%"class.testing::internal::GTestLog" = type { i32 }

@.str.252 = private unnamed_addr constant [166 x i8] c"generated/home/dtcxzyw/WorkSpace/Projects/compilers/llvm-opt-benchmark/bench/abseil-cpp/bench_build/googletest-src/googletest/include/gtest/internal/gtest-internal.h\00", align 1
@.str.253 = private unnamed_addr constant [51 x i8] c"Condition !test_case_fp || !test_suite_fp failed. \00", align 1
@.str.254 = private unnamed_addr constant [107 x i8] c"Test can not provide both SetUpTestSuite and SetUpTestCase, please make sure there is only one present at \00", align 1
@.str.255 = private unnamed_addr constant [2 x i8] c":\00", align 1
@_ZSt4cerr = external global %"class.std::basic_ostream", align 8

; Function Attrs: mustprogress nounwind uwtable
define linkonce_odr dso_local noundef nonnull align 8 dereferenceable(8) ptr @_ZN7testing8internal8GTestLog9GetStreamEv(ptr noundef nonnull align 4 dereferenceable(4) %this) #5 comdat align 2 {
entry:
  %this.addr = alloca ptr, align 8
  store ptr %this, ptr %this.addr, align 8
  ret ptr @_ZSt4cerr
}

; Function Attrs: mustprogress nounwind uwtable
define linkonce_odr dso_local noundef ptr @_ZN7testing8internal19GetNotDefaultOrNullEPFvvES2_(ptr noundef %a, ptr noundef %def) #5 comdat {
entry:
  %a.addr = alloca ptr, align 8
  %def.addr = alloca ptr, align 8
  store ptr %a, ptr %a.addr, align 8
  store ptr %def, ptr %def.addr, align 8
  %0 = load ptr, ptr %a.addr, align 8
  %1 = load ptr, ptr %def.addr, align 8
  %cmp = icmp eq ptr %0, %1
  br i1 %cmp, label %cond.true, label %cond.false

cond.true:                                        ; preds = %entry
  br label %cond.end

cond.false:                                       ; preds = %entry
  %2 = load ptr, ptr %a.addr, align 8
  br label %cond.end

cond.end:                                         ; preds = %cond.false, %cond.true
  %cond = phi ptr [ null, %cond.true ], [ %2, %cond.false ]
  ret ptr %cond
}

; Function Attrs: mustprogress uwtable
define internal noundef ptr @_ZN7testing8internal16SuiteApiResolverIN4absl12_GLOBAL__N_134IntegerTypesTest_HandlesTypes_TestIhEEE19GetSetUpCaseOrSuiteEPKci(ptr noundef %filename, i32 noundef %line_num) #4 align 2 personality ptr @__gxx_personality_v0 {
entry:
  %filename.addr = alloca ptr, align 8
  %line_num.addr = alloca i32, align 4
  %test_case_fp = alloca ptr, align 8
  %test_suite_fp = alloca ptr, align 8
  %ref.tmp = alloca %"class.testing::internal::GTestLog", align 4
  %exn.slot = alloca ptr, align 8
  %ehselector.slot = alloca i32, align 4
  store ptr %filename, ptr %filename.addr, align 8
  store i32 %line_num, ptr %line_num.addr, align 4
  %call = call noundef ptr @_ZN7testing8internal19GetNotDefaultOrNullEPFvvES2_(ptr noundef @_ZN7testing4Test13SetUpTestCaseEv, ptr noundef @_ZN7testing4Test13SetUpTestCaseEv)
  store ptr %call, ptr %test_case_fp, align 8
  %call1 = call noundef ptr @_ZN7testing8internal19GetNotDefaultOrNullEPFvvES2_(ptr noundef @_ZN7testing4Test14SetUpTestSuiteEv, ptr noundef @_ZN7testing4Test14SetUpTestSuiteEv)
  store ptr %call1, ptr %test_suite_fp, align 8
  %0 = load ptr, ptr %test_case_fp, align 8
  %tobool = icmp ne ptr %0, null
  br i1 %tobool, label %lor.rhs, label %lor.end

lor.rhs:                                          ; preds = %entry
  %1 = load ptr, ptr %test_suite_fp, align 8
  %tobool2 = icmp ne ptr %1, null
  %lnot = xor i1 %tobool2, true
  br label %lor.end

lor.end:                                          ; preds = %lor.rhs, %entry
  %2 = phi i1 [ true, %entry ], [ %lnot, %lor.rhs ]
  %call3 = call noundef zeroext i1 @_ZN7testing8internal6IsTrueEb(i1 noundef zeroext %2)
  br i1 %call3, label %if.then, label %if.else

if.then:                                          ; preds = %lor.end
  br label %if.end

if.else:                                          ; preds = %lor.end
  call void @_ZN7testing8internal8GTestLogC1ENS0_16GTestLogSeverityEPKci(ptr noundef nonnull align 4 dereferenceable(4) %ref.tmp, i32 noundef 3, ptr noundef @.str.252, i32 noundef 513)
  %call4 = invoke noundef nonnull align 8 dereferenceable(8) ptr @_ZN7testing8internal8GTestLog9GetStreamEv(ptr noundef nonnull align 4 dereferenceable(4) %ref.tmp)
          to label %invoke.cont unwind label %lpad

invoke.cont:                                      ; preds = %if.else
  %call6 = invoke noundef nonnull align 8 dereferenceable(8) ptr @_ZStlsISt11char_traitsIcEERSt13basic_ostreamIcT_ES5_PKc(ptr noundef nonnull align 8 dereferenceable(8) %call4, ptr noundef @.str.253)
          to label %invoke.cont5 unwind label %lpad

invoke.cont5:                                     ; preds = %invoke.cont
  %call8 = invoke noundef nonnull align 8 dereferenceable(8) ptr @_ZStlsISt11char_traitsIcEERSt13basic_ostreamIcT_ES5_PKc(ptr noundef nonnull align 8 dereferenceable(8) %call6, ptr noundef @.str.254)
          to label %invoke.cont7 unwind label %lpad

invoke.cont7:                                     ; preds = %invoke.cont5
  %3 = load ptr, ptr %filename.addr, align 8
  %call10 = invoke noundef nonnull align 8 dereferenceable(8) ptr @_ZStlsISt11char_traitsIcEERSt13basic_ostreamIcT_ES5_PKc(ptr noundef nonnull align 8 dereferenceable(8) %call8, ptr noundef %3)
          to label %invoke.cont9 unwind label %lpad

invoke.cont9:                                     ; preds = %invoke.cont7
  %call12 = invoke noundef nonnull align 8 dereferenceable(8) ptr @_ZStlsISt11char_traitsIcEERSt13basic_ostreamIcT_ES5_PKc(ptr noundef nonnull align 8 dereferenceable(8) %call10, ptr noundef @.str.255)
          to label %invoke.cont11 unwind label %lpad

invoke.cont11:                                    ; preds = %invoke.cont9
  %4 = load i32, ptr %line_num.addr, align 4
  %call14 = invoke noundef nonnull align 8 dereferenceable(8) ptr @_ZNSolsEi(ptr noundef nonnull align 8 dereferenceable(8) %call12, i32 noundef %4)
          to label %invoke.cont13 unwind label %lpad

invoke.cont13:                                    ; preds = %invoke.cont11
  call void @_ZN7testing8internal8GTestLogD1Ev(ptr noundef nonnull align 4 dereferenceable(4) %ref.tmp) #3
  br label %if.end

lpad:                                             ; preds = %invoke.cont11, %invoke.cont9, %invoke.cont7, %invoke.cont5, %invoke.cont, %if.else
  %5 = landingpad { ptr, i32 }
          cleanup
  %6 = extractvalue { ptr, i32 } %5, 0
  store ptr %6, ptr %exn.slot, align 8
  %7 = extractvalue { ptr, i32 } %5, 1
  store i32 %7, ptr %ehselector.slot, align 4
  call void @_ZN7testing8internal8GTestLogD1Ev(ptr noundef nonnull align 4 dereferenceable(4) %ref.tmp) #3
  br label %eh.resume

if.end:                                           ; preds = %invoke.cont13, %if.then
  %8 = load ptr, ptr %test_case_fp, align 8
  %cmp = icmp ne ptr %8, null
  br i1 %cmp, label %cond.true, label %cond.false

cond.true:                                        ; preds = %if.end
  %9 = load ptr, ptr %test_case_fp, align 8
  br label %cond.end

cond.false:                                       ; preds = %if.end
  %10 = load ptr, ptr %test_suite_fp, align 8
  br label %cond.end

cond.end:                                         ; preds = %cond.false, %cond.true
  %cond = phi ptr [ %9, %cond.true ], [ %10, %cond.false ]
  ret ptr %cond

eh.resume:                                        ; preds = %lpad
  %exn = load ptr, ptr %exn.slot, align 8
  %sel = load i32, ptr %ehselector.slot, align 4
  %lpad.val = insertvalue { ptr, i32 } poison, ptr %exn, 0
  %lpad.val15 = insertvalue { ptr, i32 } %lpad.val, i32 %sel, 1
  resume { ptr, i32 } %lpad.val15
}